; ModuleID = 'source-C-CXX/11/1451.cpp'
source_filename = "source-C-CXX/11/1451.cpp"
target datalayout = "e-m:e-p270:32:32-p271:32:32-p272:64:64-i64:64-f80:128-n8:16:32:64-S128"
target triple = "x86_64-pc-linux-gnu"

%"class.std::ios_base::Init" = type { i8 }
%"class.std::basic_istream" = type { i32 (...)**, i64, %"class.std::basic_ios" }
%"class.std::basic_ios" = type { %"class.std::ios_base", %"class.std::basic_ostream"*, i8, i8, %"class.std::basic_streambuf"*, %"class.std::ctype"*, %"class.std::num_put"*, %"class.std::num_get"* }
%"class.std::ios_base" = type { i32 (...)**, i64, i64, i32, i32, i32, %"struct.std::ios_base::_Callback_list"*, %"struct.std::ios_base::_Words", [8 x %"struct.std::ios_base::_Words"], i32, %"struct.std::ios_base::_Words"*, %"class.std::locale" }
%"struct.std::ios_base::_Callback_list" = type { %"struct.std::ios_base::_Callback_list"*, void (i32, %"class.std::ios_base"*, i32)*, i32, i32 }
%"struct.std::ios_base::_Words" = type { i8*, i64 }
%"class.std::locale" = type { %"class.std::locale::_Impl"* }
%"class.std::locale::_Impl" = type { i32, %"class.std::locale::facet"**, i64, %"class.std::locale::facet"**, i8** }
%"class.std::locale::facet" = type <{ i32 (...)**, i32, [4 x i8] }>
%"class.std::basic_ostream" = type { i32 (...)**, %"class.std::basic_ios" }
%"class.std::basic_streambuf" = type { i32 (...)**, i8*, i8*, i8*, i8*, i8*, i8*, %"class.std::locale" }
%"class.std::ctype" = type <{ %"class.std::locale::facet.base", [4 x i8], %struct.__locale_struct*, i8, [7 x i8], i32*, i32*, i16*, i8, [256 x i8], [256 x i8], i8, [6 x i8] }>
%"class.std::locale::facet.base" = type <{ i32 (...)**, i32 }>
%struct.__locale_struct = type { [13 x %struct.__locale_data*], i16*, i32*, i32*, [13 x i8*] }
%struct.__locale_data = type opaque
%"class.std::num_put" = type { %"class.std::locale::facet.base", [4 x i8] }
%"class.std::num_get" = type { %"class.std::locale::facet.base", [4 x i8] }

@_ZStL8__ioinit = internal global %"class.std::ios_base::Init" zeroinitializer, align 1
@__dso_handle = external hidden global i8
@_ZSt3cin = external global %"class.std::basic_istream", align 8
@_ZSt4cout = external global %"class.std::basic_ostream", align 8
@llvm.global_ctors = appending global [1 x { i32, void ()*, i8* }] [{ i32, void ()*, i8* } { i32 65535, void ()* @_GLOBAL__sub_I_1451.cpp, i8* null }]

declare void @_ZNSt8ios_base4InitC1Ev(%"class.std::ios_base::Init"* nonnull align 1 dereferenceable(1)) unnamed_addr #0

; Function Attrs: nounwind
declare void @_ZNSt8ios_base4InitD1Ev(%"class.std::ios_base::Init"* nonnull align 1 dereferenceable(1)) unnamed_addr #1

; Function Attrs: nofree nounwind
declare i32 @__cxa_atexit(void (i8*)*, i8*, i8*) local_unnamed_addr #2

; Function Attrs: mustprogress norecurse sspstrong uwtable
define dso_local i32 @main() local_unnamed_addr #3 {
  %1 = alloca [20 x i32], align 16
  %2 = bitcast [20 x i32]* %1 to i8*
  call void @llvm.lifetime.start.p0i8(i64 80, i8* nonnull %2) #7
  br label %3

3:                                                ; preds = %19, %0
  %4 = phi i64 [ 0, %0 ], [ %20, %19 ]
  %5 = getelementptr inbounds [20 x i32], [20 x i32]* %1, i64 0, i64 %4
  %6 = call nonnull align 8 dereferenceable(16) %"class.std::basic_istream"* @_ZNSirsERi(%"class.std::basic_istream"* nonnull align 8 dereferenceable(16) @_ZSt3cin, i32* nonnull align 4 dereferenceable(4) %5)
  %7 = load i32, i32* %5, align 4, !tbaa !5
  switch i32 %7, label %17 [
    i32 0, label %8
    i32 -1, label %95
  ]

8:                                                ; preds = %3
  %9 = trunc i64 %4 to i32
  %10 = icmp eq i32 %9, 0
  br i1 %10, label %63, label %11

11:                                               ; preds = %8
  %12 = and i64 %4, 4294967295
  %13 = and i64 %4, 1
  %14 = icmp eq i64 %12, 1
  br i1 %14, label %44, label %15

15:                                               ; preds = %11
  %16 = sub nsw i64 %12, %13
  br label %21

17:                                               ; preds = %3
  %18 = add nuw i64 %4, 1
  br label %19

19:                                               ; preds = %17, %91
  %20 = phi i64 [ %18, %17 ], [ 0, %91 ]
  br label %3, !llvm.loop !9

21:                                               ; preds = %106, %15
  %22 = phi i64 [ 0, %15 ], [ %108, %106 ]
  %23 = phi i32 [ 0, %15 ], [ %107, %106 ]
  %24 = phi i64 [ %16, %15 ], [ %109, %106 ]
  %25 = getelementptr inbounds [20 x i32], [20 x i32]* %1, i64 0, i64 %22
  %26 = load i32, i32* %25, align 8, !tbaa !5
  %27 = shl nsw i32 %26, 1
  br label %30

28:                                               ; preds = %30
  %29 = icmp eq i64 %35, %12
  br i1 %29, label %38, label %30, !llvm.loop !11

30:                                               ; preds = %21, %28
  %31 = phi i64 [ 0, %21 ], [ %35, %28 ]
  %32 = getelementptr inbounds [20 x i32], [20 x i32]* %1, i64 0, i64 %31
  %33 = load i32, i32* %32, align 4, !tbaa !5
  %34 = icmp eq i32 %33, %27
  %35 = add nuw nsw i64 %31, 1
  br i1 %34, label %36, label %28

36:                                               ; preds = %30
  %37 = add nsw i32 %23, 1
  br label %38

38:                                               ; preds = %28, %36
  %39 = phi i32 [ %37, %36 ], [ %23, %28 ]
  %40 = or i64 %22, 1
  %41 = getelementptr inbounds [20 x i32], [20 x i32]* %1, i64 0, i64 %40
  %42 = load i32, i32* %41, align 4, !tbaa !5
  %43 = shl nsw i32 %42, 1
  br label %96

44:                                               ; preds = %106, %11
  %45 = phi i32 [ undef, %11 ], [ %107, %106 ]
  %46 = phi i64 [ 0, %11 ], [ %108, %106 ]
  %47 = phi i32 [ 0, %11 ], [ %107, %106 ]
  %48 = icmp eq i64 %13, 0
  br i1 %48, label %63, label %49

49:                                               ; preds = %44
  %50 = getelementptr inbounds [20 x i32], [20 x i32]* %1, i64 0, i64 %46
  %51 = load i32, i32* %50, align 4, !tbaa !5
  %52 = shl nsw i32 %51, 1
  br label %53

53:                                               ; preds = %59, %49
  %54 = phi i64 [ 0, %49 ], [ %58, %59 ]
  %55 = getelementptr inbounds [20 x i32], [20 x i32]* %1, i64 0, i64 %54
  %56 = load i32, i32* %55, align 4, !tbaa !5
  %57 = icmp eq i32 %56, %52
  %58 = add nuw nsw i64 %54, 1
  br i1 %57, label %61, label %59

59:                                               ; preds = %53
  %60 = icmp eq i64 %58, %12
  br i1 %60, label %63, label %53, !llvm.loop !11

61:                                               ; preds = %53
  %62 = add nsw i32 %47, 1
  br label %63

63:                                               ; preds = %44, %61, %59, %8
  %64 = phi i32 [ 0, %8 ], [ %45, %44 ], [ %62, %61 ], [ %47, %59 ]
  %65 = call nonnull align 8 dereferenceable(8) %"class.std::basic_ostream"* @_ZNSolsEi(%"class.std::basic_ostream"* nonnull align 8 dereferenceable(8) @_ZSt4cout, i32 %64)
  %66 = bitcast %"class.std::basic_ostream"* %65 to i8**
  %67 = load i8*, i8** %66, align 8, !tbaa !12
  %68 = getelementptr i8, i8* %67, i64 -24
  %69 = bitcast i8* %68 to i64*
  %70 = load i64, i64* %69, align 8
  %71 = bitcast %"class.std::basic_ostream"* %65 to i8*
  %72 = add nsw i64 %70, 240
  %73 = getelementptr inbounds i8, i8* %71, i64 %72
  %74 = bitcast i8* %73 to %"class.std::ctype"**
  %75 = load %"class.std::ctype"*, %"class.std::ctype"** %74, align 8, !tbaa !14
  %76 = icmp eq %"class.std::ctype"* %75, null
  br i1 %76, label %77, label %78

77:                                               ; preds = %63
  call void @_ZSt16__throw_bad_castv() #8
  unreachable

78:                                               ; preds = %63
  %79 = getelementptr inbounds %"class.std::ctype", %"class.std::ctype"* %75, i64 0, i32 8
  %80 = load i8, i8* %79, align 8, !tbaa !18
  %81 = icmp eq i8 %80, 0
  br i1 %81, label %85, label %82

82:                                               ; preds = %78
  %83 = getelementptr inbounds %"class.std::ctype", %"class.std::ctype"* %75, i64 0, i32 9, i64 10
  %84 = load i8, i8* %83, align 1, !tbaa !20
  br label %91

85:                                               ; preds = %78
  call void @_ZNKSt5ctypeIcE13_M_widen_initEv(%"class.std::ctype"* nonnull align 8 dereferenceable(570) %75)
  %86 = bitcast %"class.std::ctype"* %75 to i8 (%"class.std::ctype"*, i8)***
  %87 = load i8 (%"class.std::ctype"*, i8)**, i8 (%"class.std::ctype"*, i8)*** %86, align 8, !tbaa !12
  %88 = getelementptr inbounds i8 (%"class.std::ctype"*, i8)*, i8 (%"class.std::ctype"*, i8)** %87, i64 6
  %89 = load i8 (%"class.std::ctype"*, i8)*, i8 (%"class.std::ctype"*, i8)** %88, align 8
  %90 = call signext i8 %89(%"class.std::ctype"* nonnull align 8 dereferenceable(570) %75, i8 signext 10)
  br label %91

91:                                               ; preds = %82, %85
  %92 = phi i8 [ %84, %82 ], [ %90, %85 ]
  %93 = call nonnull align 8 dereferenceable(8) %"class.std::basic_ostream"* @_ZNSo3putEc(%"class.std::basic_ostream"* nonnull align 8 dereferenceable(8) %65, i8 signext %92)
  %94 = call nonnull align 8 dereferenceable(8) %"class.std::basic_ostream"* @_ZNSo5flushEv(%"class.std::basic_ostream"* nonnull align 8 dereferenceable(8) %93)
  br label %19

95:                                               ; preds = %3
  call void @llvm.lifetime.end.p0i8(i64 80, i8* nonnull %2) #7
  ret i32 0

96:                                               ; preds = %102, %38
  %97 = phi i64 [ 0, %38 ], [ %101, %102 ]
  %98 = getelementptr inbounds [20 x i32], [20 x i32]* %1, i64 0, i64 %97
  %99 = load i32, i32* %98, align 4, !tbaa !5
  %100 = icmp eq i32 %99, %43
  %101 = add nuw nsw i64 %97, 1
  br i1 %100, label %104, label %102

102:                                              ; preds = %96
  %103 = icmp eq i64 %101, %12
  br i1 %103, label %106, label %96, !llvm.loop !11

104:                                              ; preds = %96
  %105 = add nsw i32 %39, 1
  br label %106

106:                                              ; preds = %102, %104
  %107 = phi i32 [ %105, %104 ], [ %39, %102 ]
  %108 = add nuw nsw i64 %22, 2
  %109 = add i64 %24, -2
  %110 = icmp eq i64 %109, 0
  br i1 %110, label %44, label %21, !llvm.loop !21
}

; Function Attrs: argmemonly mustprogress nofree nosync nounwind willreturn
declare void @llvm.lifetime.start.p0i8(i64 immarg, i8* nocapture) #4

declare nonnull align 8 dereferenceable(16) %"class.std::basic_istream"* @_ZNSirsERi(%"class.std::basic_istream"* nonnull align 8 dereferenceable(16), i32* nonnull align 4 dereferenceable(4)) local_unnamed_addr #0

declare nonnull align 8 dereferenceable(8) %"class.std::basic_ostream"* @_ZNSolsEi(%"class.std::basic_ostream"* nonnull align 8 dereferenceable(8), i32) local_unnamed_addr #0

; Function Attrs: argmemonly mustprogress nofree nosync nounwind willreturn
declare void @llvm.lifetime.end.p0i8(i64 immarg, i8* nocapture) #4

declare nonnull align 8 dereferenceable(8) %"class.std::basic_ostream"* @_ZNSo3putEc(%"class.std::basic_ostream"* nonnull align 8 dereferenceable(8), i8 signext) local_unnamed_addr #0

declare nonnull align 8 dereferenceable(8) %"class.std::basic_ostream"* @_ZNSo5flushEv(%"class.std::basic_ostream"* nonnull align 8 dereferenceable(8)) local_unnamed_addr #0

; Function Attrs: noreturn
declare void @_ZSt16__throw_bad_castv() local_unnamed_addr #5

declare void @_ZNKSt5ctypeIcE13_M_widen_initEv(%"class.std::ctype"* nonnull align 8 dereferenceable(570)) local_unnamed_addr #0

; Function Attrs: sspstrong uwtable
define internal void @_GLOBAL__sub_I_1451.cpp() #6 section ".text.startup" {
  tail call void @_ZNSt8ios_base4InitC1Ev(%"class.std::ios_base::Init"* nonnull align 1 dereferenceable(1) @_ZStL8__ioinit)
  %1 = tail call i32 @__cxa_atexit(void (i8*)* bitcast (void (%"class.std::ios_base::Init"*)* @_ZNSt8ios_base4InitD1Ev to void (i8*)*), i8* getelementptr inbounds (%"class.std::ios_base::Init", %"class.std::ios_base::Init"* @_ZStL8__ioinit, i64 0, i32 0), i8* nonnull @__dso_handle) #7
  ret void
}


!llvm.module.flags = !{!0, !1, !2, !3}
!llvm.ident = !{!4}

!0 = !{i32 1, !"wchar_size", i32 4}
!1 = !{i32 7, !"PIC Level", i32 2}
!2 = !{i32 7, !"PIE Level", i32 2}
!3 = !{i32 7, !"uwtable", i32 1}
!4 = !{!"clang version 13.0.0"}
!5 = !{!6, !6, i64 0}
!6 = !{!"int", !7, i64 0}
!7 = !{!"omnipotent char", !8, i64 0}
!8 = !{!"Simple C++ TBAA"}
!9 = distinct !{!9, !10}
!10 = !{!"llvm.loop.mustprogress"}
!11 = distinct !{!11, !10}
!12 = !{!13, !13, i64 0}
!13 = !{!"vtable pointer", !8, i64 0}
!14 = !{!15, !16, i64 240}
!15 = !{!"_ZTSSt9basic_iosIcSt11char_traitsIcEE", !16, i64 216, !7, i64 224, !17, i64 225, !16, i64 232, !16, i64 240, !16, i64 248, !16, i64 256}
!16 = !{!"any pointer", !7, i64 0}
!17 = !{!"bool", !7, i64 0}
!18 = !{!19, !7, i64 56}
!19 = !{!"_ZTSSt5ctypeIcE", !16, i64 16, !17, i64 24, !16, i64 32, !16, i64 40, !16, i64 48, !7, i64 56, !7, i64 57, !7, i64 313, !7, i64 569}
!20 = !{!7, !7, i64 0}
!21 = distinct !{!21, !10}
